target datalayout = "e-m:e-p270:32:32-p271:32:32-p272:64:64-i64:64-i128:128-f80:128-n8:16:32:64-S128"
target triple = "x86_64-pc-linux-gnu"

%"class.net::(anonymous namespace)::ForceHolAckListener" = type <{ %"class.net::QuicAckListenerInterface.base", [4 x i8], %class.scoped_refptr.175, i32, [4 x i8] }>
%"class.net::QuicAckListenerInterface.base" = type <{ ptr, %"class.base::RefCounted" }>
%"class.base::RefCounted" = type { %"class.base::subtle::RefCountedBase" }
%"class.base::subtle::RefCountedBase" = type { i32 }
%class.scoped_refptr.175 = type { ptr }

; Function Attrs: mustprogress nounwind uwtable
define linkonce_odr noundef zeroext i1 @_ZNK4base6subtle14RefCountedBase7ReleaseEv(ptr noundef nonnull align 4 dereferenceable(4) %0) #0 comdat align 2 {
  %2 = alloca i1, align 1
  %3 = alloca ptr, align 8
  store ptr %0, ptr %3, align 8, !tbaa !501
  %4 = load ptr, ptr %3, align 8
  %5 = getelementptr inbounds nuw %"class.base::subtle::RefCountedBase", ptr %4, i32 0, i32 0
  %6 = load i32, ptr %5, align 4, !tbaa !503
  %7 = add nsw i32 %6, -1
  store i32 %7, ptr %5, align 4, !tbaa !503
  %8 = icmp eq i32 %7, 0
  br i1 %8, label %9, label %10

9:                                                ; preds = %1
  store i1 true, ptr %2, align 1
  br label %11

10:                                               ; preds = %1
  store i1 false, ptr %2, align 1
  br label %11

11:                                               ; preds = %10, %9
  %12 = load i1, ptr %2, align 1
  ret i1 %12
}

; Function Attrs: mustprogress uwtable
define linkonce_odr void @_ZNK4base10RefCountedIN3net24QuicAckListenerInterfaceEE7ReleaseEv(ptr noundef nonnull align 4 dereferenceable(4) %0) #2 comdat align 2 {
  %2 = alloca ptr, align 8
  store ptr %0, ptr %2, align 8, !tbaa !499
  %3 = load ptr, ptr %2, align 8
  %4 = call noundef zeroext i1 @_ZNK4base6subtle14RefCountedBase7ReleaseEv(ptr noundef nonnull align 4 dereferenceable(4) %3)
  br i1 %4, label %5, label %13

5:                                                ; preds = %1
  %6 = getelementptr inbounds i8, ptr %3, i64 -8
  %7 = icmp eq ptr %6, null
  br i1 %7, label %12, label %8

8:                                                ; preds = %5
  %9 = load ptr, ptr %6, align 8, !tbaa !8
  %10 = getelementptr inbounds ptr, ptr %9, i64 3
  %11 = load ptr, ptr %10, align 8
  call void %11(ptr noundef nonnull align 8 dereferenceable(12) %6) #18
  br label %12

12:                                               ; preds = %8, %5
  br label %13

13:                                               ; preds = %12, %1
  ret void
}

; Function Attrs: mustprogress nounwind uwtable
define linkonce_odr void @_ZN4base6subtle14RefCountedBaseD2Ev(ptr noundef nonnull align 4 dereferenceable(4) %0) unnamed_addr #0 comdat align 2 {
  %2 = alloca ptr, align 8
  store ptr %0, ptr %2, align 8, !tbaa !501
  ret void
}

; Function Attrs: noinline noreturn nounwind uwtable
define linkonce_odr hidden void @__clang_call_terminate(ptr noundef %0) #14 comdat {
  %2 = call ptr @__cxa_begin_catch(ptr %0) #18
  call void @_ZSt9terminatev() #16
  unreachable
}

; Function Attrs: mustprogress uwtable
define linkonce_odr void @_ZN13scoped_refptrIN3net24QuicAckListenerInterfaceEE7ReleaseEPS1_(ptr noundef %0) #2 comdat align 2 {
  %2 = alloca ptr, align 8
  store ptr %0, ptr %2, align 8, !tbaa !207
  %3 = load ptr, ptr %2, align 8, !tbaa !207
  %4 = getelementptr inbounds i8, ptr %3, i64 8
  call void @_ZNK4base10RefCountedIN3net24QuicAckListenerInterfaceEE7ReleaseEv(ptr noundef nonnull align 4 dereferenceable(4) %4)
  ret void
}

; Function Attrs: mustprogress nounwind uwtable
define linkonce_odr void @_ZN3net24QuicAckListenerInterfaceD2Ev(ptr noundef nonnull align 8 dereferenceable(12) %0) unnamed_addr #0 comdat align 2 {
  %2 = alloca ptr, align 8
  store ptr %0, ptr %2, align 8, !tbaa !207
  %3 = load ptr, ptr %2, align 8
  %4 = getelementptr inbounds i8, ptr %3, i64 8
  call void @_ZN4base6subtle14RefCountedBaseD2Ev(ptr noundef nonnull align 4 dereferenceable(4) %4) #18
  ret void
}

; Function Attrs: mustprogress nounwind uwtable
define linkonce_odr void @_ZN13scoped_refptrIN3net24QuicAckListenerInterfaceEED2Ev(ptr noundef nonnull align 8 dereferenceable(8) %0) unnamed_addr #0 comdat align 2 personality ptr @__gxx_personality_v0 {
  %2 = alloca ptr, align 8
  store ptr %0, ptr %2, align 8, !tbaa !496
  %3 = load ptr, ptr %2, align 8
  %4 = getelementptr inbounds nuw %class.scoped_refptr.175, ptr %3, i32 0, i32 0
  %5 = load ptr, ptr %4, align 8, !tbaa !498
  %6 = icmp ne ptr %5, null
  br i1 %6, label %7, label %11

7:                                                ; preds = %1
  %8 = getelementptr inbounds nuw %class.scoped_refptr.175, ptr %3, i32 0, i32 0
  %9 = load ptr, ptr %8, align 8, !tbaa !498
  invoke void @_ZN13scoped_refptrIN3net24QuicAckListenerInterfaceEE7ReleaseEPS1_(ptr noundef %9)
          to label %10 unwind label %12

10:                                               ; preds = %7
  br label %11

11:                                               ; preds = %10, %1
  ret void

12:                                               ; preds = %7
  %13 = landingpad { ptr, i32 }
          catch ptr null
  %14 = extractvalue { ptr, i32 } %13, 0
  call void @__clang_call_terminate(ptr %14) #16
  unreachable
}

; Function Attrs: mustprogress nounwind uwtable
define internal void @_ZN3net12_GLOBAL__N_119ForceHolAckListenerD2Ev(ptr noundef nonnull align 8 dereferenceable(28) %0) unnamed_addr #0 align 2 {
  %2 = alloca ptr, align 8
  store ptr %0, ptr %2, align 8, !tbaa !289
  %3 = load ptr, ptr %2, align 8
  store ptr getelementptr inbounds inrange(-16, 32) ({ [6 x ptr] }, ptr @_ZTVN3net12_GLOBAL__N_119ForceHolAckListenerE, i32 0, i32 0, i32 2), ptr %3, align 8, !tbaa !8
  %4 = getelementptr inbounds nuw %"class.net::(anonymous namespace)::ForceHolAckListener", ptr %3, i32 0, i32 2
  call void @_ZN13scoped_refptrIN3net24QuicAckListenerInterfaceEED2Ev(ptr noundef nonnull align 8 dereferenceable(8) %4) #18
  call void @_ZN3net24QuicAckListenerInterfaceD2Ev(ptr noundef nonnull align 8 dereferenceable(12) %3) #18
  ret void
}