; Function Attrs: mustprogress nounwind uwtable
define internal void @_ZN3net12_GLOBAL__N_119ForceHolAckListenerD2Ev(ptr noundef nonnull align 8 captures(none) dereferenceable(28) initializes((0, 8)) %0) unnamed_addr #9 align 2 personality ptr @__gxx_personality_v0 {
  store ptr getelementptr inbounds nuw inrange(-16, 32) (i8, ptr @_ZTVN3net12_GLOBAL__N_119ForceHolAckListenerE, i64 16), ptr %0, align 8, !tbaa !3
  %2 = getelementptr inbounds nuw i8, ptr %0, i64 16
  %3 = load ptr, ptr %2, align 8, !tbaa !359
  %.not.i = icmp eq ptr %3, null
  br i1 %.not.i, label %_ZN13scoped_refptrIN3net24QuicAckListenerInterfaceEED2Ev.exit, label %4

4:                                                ; preds = %1
  %5 = getelementptr inbounds nuw i8, ptr %3, i64 8
  %6 = load i32, ptr %5, align 4, !tbaa !362
  %7 = add nsw i32 %6, -1
  store i32 %7, ptr %5, align 4, !tbaa !362
  %8 = icmp eq i32 %7, 0
  br i1 %8, label %9, label %_ZN13scoped_refptrIN3net24QuicAckListenerInterfaceEED2Ev.exit

9:                                                ; preds = %4
  %10 = load ptr, ptr %3, align 8, !tbaa !3
  %11 = getelementptr inbounds nuw i8, ptr %10, i64 24
  %12 = load ptr, ptr %11, align 8
  tail call void %12(ptr noundef nonnull align 8 dereferenceable(12) %3) #23
  br label %_ZN13scoped_refptrIN3net24QuicAckListenerInterfaceEED2Ev.exit

_ZN13scoped_refptrIN3net24QuicAckListenerInterfaceEED2Ev.exit: ; preds = %1, %4, %9
  ret void
}